target datalayout = "e-m:e-p270:32:32-p271:32:32-p272:64:64-i64:64-i128:128-f80:128-n8:16:32:64-S128"
target triple = "x86_64-pc-linux-gnu"

%struct.hs_scratch = type { i32, i8, i32, i32, i32, i32, i32, %struct.RoseContext, ptr, ptr, ptr, ptr, ptr, ptr, ptr, i64, %struct.catchup_pq, %struct.core_info, %struct.match_deduper, i32, i32, ptr, ptr, ptr, ptr, ptr, i64, i32, i32, i32, i32, i32, ptr, ptr, i8 }
%struct.RoseContext = type { i8, i64, i64, i64, i64, i64, i64, i64, i64, i64, i32, i32, ptr, i64, ptr, i64 }
%struct.catchup_pq = type { ptr, i32 }
%struct.core_info = type { ptr, ptr, ptr, ptr, ptr, ptr, ptr, ptr, i64, ptr, i64, i64, i8 }
%struct.match_deduper = type { [2 x ptr], [2 x ptr], [2 x ptr], i32, i32, i64, i8 }

; Function Attrs: alwaysinline nounwind uwtable
define internal signext i8 @can_stop_matching(ptr noundef %0) #2 {
  %2 = alloca ptr, align 8
  store ptr %0, ptr %2, align 8
  %3 = load ptr, ptr %2, align 8
  %4 = getelementptr inbounds nuw %struct.hs_scratch, ptr %3, i32 0, i32 17
  %5 = getelementptr inbounds nuw %struct.core_info, ptr %4, i32 0, i32 12
  %6 = load i8, ptr %5, align 8
  %7 = zext i8 %6 to i32
  %8 = and i32 %7, 11
  %9 = trunc i32 %8 to i8
  ret i8 %9
}

; Function Attrs: alwaysinline nounwind uwtable
define internal i32 @roseNfaRunProgram(ptr noundef %0, ptr noundef %1, i64 noundef %2, i64 noundef %3, i32 noundef %4, i8 noundef signext %5) #2 {
  %7 = alloca ptr, align 8
  %8 = alloca ptr, align 8
  %9 = alloca i64, align 8
  %10 = alloca i64, align 8
  %11 = alloca i32, align 4
  %12 = alloca i8, align 1
  %13 = alloca i32, align 4
  %14 = alloca i8, align 1
  store ptr %0, ptr %7, align 8
  store ptr %1, ptr %8, align 8
  store i64 %2, ptr %9, align 8
  store i64 %3, ptr %10, align 8
  store i32 %4, ptr %11, align 4
  store i8 %5, ptr %12, align 1
  call void @llvm.lifetime.start.p0(i64 4, ptr %13) #11
  %15 = load i32, ptr %11, align 4
  store i32 %15, ptr %13, align 4
  call void @llvm.lifetime.start.p0(i64 1, ptr %14) #11
  store i8 2, ptr %14, align 1
  %16 = load i8, ptr %12, align 1
  %17 = icmp ne i8 %16, 0
  br i1 %17, label %18, label %23

18:                                               ; preds = %6
  %19 = load i8, ptr %14, align 1
  %20 = zext i8 %19 to i32
  %21 = or i32 %20, 4
  %22 = trunc i32 %21 to i8
  store i8 %22, ptr %14, align 1
  br label %23

23:                                               ; preds = %18, %6
  %24 = load ptr, ptr %7, align 8
  %25 = load ptr, ptr %8, align 8
  %26 = load i32, ptr %13, align 4
  %27 = load i64, ptr %9, align 8
  %28 = load i64, ptr %10, align 8
  %29 = load i8, ptr %14, align 1
  %30 = call i64 @roseRunProgram(ptr noundef %24, ptr noundef %25, i32 noundef %26, i64 noundef %27, i64 noundef %28, i8 noundef zeroext %29)
  %31 = load ptr, ptr %8, align 8
  %32 = call signext i8 @can_stop_matching(ptr noundef %31)
  %33 = sext i8 %32 to i32
  %34 = icmp ne i32 %33, 0
  %35 = select i1 %34, i32 0, i32 1
  call void @llvm.lifetime.end.p0(i64 1, ptr %14) #11
  call void @llvm.lifetime.end.p0(i64 4, ptr %13) #11
  ret i32 %35
}

; Function Attrs: nounwind uwtable
define hidden i32 @roseNfaAdaptor(i64 noundef %0, i64 noundef %1, i32 noundef %2, ptr noundef %3) #0 {
  %5 = alloca i64, align 8
  %6 = alloca i64, align 8
  %7 = alloca i32, align 4
  %8 = alloca ptr, align 8
  %9 = alloca ptr, align 8
  store i64 %0, ptr %5, align 8
  store i64 %1, ptr %6, align 8
  store i32 %2, ptr %7, align 4
  store ptr %3, ptr %8, align 8
  call void @llvm.lifetime.start.p0(i64 8, ptr %9) #11
  %10 = load ptr, ptr %8, align 8
  store ptr %10, ptr %9, align 8
  br label %11

11:                                               ; preds = %4
  br label %12

12:                                               ; preds = %11
  br label %13

13:                                               ; preds = %12
  %14 = load ptr, ptr %9, align 8
  %15 = getelementptr inbounds nuw %struct.hs_scratch, ptr %14, i32 0, i32 17
  %16 = getelementptr inbounds nuw %struct.core_info, ptr %15, i32 0, i32 2
  %17 = load ptr, ptr %16, align 8
  %18 = load ptr, ptr %9, align 8
  %19 = load i64, ptr %5, align 8
  %20 = load i64, ptr %6, align 8
  %21 = load i32, ptr %7, align 4
  %22 = call i32 @roseNfaRunProgram(ptr noundef %17, ptr noundef %18, i64 noundef %19, i64 noundef %20, i32 noundef %21, i8 noundef signext 0)
  call void @llvm.lifetime.end.p0(i64 8, ptr %9) #11
  ret i32 %22
}