; Function Attrs: nounwind uwtable
define hidden range(i32 0, 2) i32 @roseNfaAdaptor(i64 noundef %0, i64 noundef %1, i32 noundef %2, ptr noundef %3) #0 {
  %5 = getelementptr inbounds nuw i8, ptr %3, i64 248
  %6 = load ptr, ptr %5, align 8
  %7 = tail call i64 @roseRunProgram(ptr noundef %6, ptr noundef %3, i32 noundef %2, i64 noundef %0, i64 noundef %1, i8 noundef zeroext 2) #9
  %8 = getelementptr inbounds nuw i8, ptr %3, i64 328
  %9 = load i8, ptr %8, align 8
  %10 = and i8 %9, 11
  %.not9.i = icmp eq i8 %10, 0
  %11 = zext i1 %.not9.i to i32
  ret i32 %11
}